; Function Attrs: mustprogress uwtable
define i32 @uloc_toLanguageTag_77(ptr noundef %0, ptr noundef %1, i32 noundef %2, i8 noundef signext %3, ptr noundef %4) local_unnamed_addr #1 personality ptr @__gxx_personality_v0 {
  %6 = alloca %"class.icu_77::CheckedArrayByteSink", align 8
  %7 = load i32, ptr %4, align 4, !tbaa !13
  %8 = icmp slt i32 %7, 1
  br i1 %8, label %9, label %"_ZN6icu_7712ByteSinkUtil28viaByteSinkToTerminatedCharsIZ21uloc_toLanguageTag_77E3$_0vEEiPciOT_R10UErrorCode.exit"

9:                                                ; preds = %5
  call void @llvm.lifetime.start.p0(i64 32, ptr nonnull %6) #17
  call void @_ZN6icu_7720CheckedArrayByteSinkC1EPci(ptr noundef nonnull align 8 dereferenceable(29) %6, ptr noundef %1, i32 noundef %2)
  %10 = icmp ne i8 %3, 0
  invoke void @_Z24ulocimp_toLanguageTag_77PKcRN6icu_778ByteSinkEbR10UErrorCode(ptr noundef %0, ptr noundef nonnull align 8 dereferenceable(8) %6, i1 noundef zeroext %10, ptr noundef nonnull align 4 dereferenceable(4) %4)
          to label %"_ZZ21uloc_toLanguageTag_77ENK3$_0clERN6icu_778ByteSinkER10UErrorCode.exit.i" unwind label %13

"_ZZ21uloc_toLanguageTag_77ENK3$_0clERN6icu_778ByteSinkER10UErrorCode.exit.i": ; preds = %9
  %11 = load i32, ptr %4, align 4, !tbaa !13
  %12 = icmp slt i32 %11, 1
  br i1 %12, label %15, label %25

13:                                               ; preds = %9
  %14 = landingpad { ptr, i32 }
          cleanup
  br label %26

15:                                               ; preds = %"_ZZ21uloc_toLanguageTag_77ENK3$_0clERN6icu_778ByteSinkER10UErrorCode.exit.i"
  %16 = getelementptr inbounds nuw i8, ptr %6, i64 24
  %17 = load i32, ptr %16, align 8, !tbaa !24
  %18 = getelementptr inbounds nuw i8, ptr %6, i64 28
  %19 = load i8, ptr %18, align 4, !tbaa !27
  %.not17.i = icmp eq i8 %19, 0
  br i1 %.not17.i, label %23, label %20

20:                                               ; preds = %15
  store i32 15, ptr %4, align 4, !tbaa !13
  br label %25

21:                                               ; preds = %23
  %22 = landingpad { ptr, i32 }
          cleanup
  br label %26

23:                                               ; preds = %15
  %24 = invoke i32 @u_terminateChars_77(ptr noundef %1, i32 noundef %2, i32 noundef %17, ptr noundef nonnull align 4 dereferenceable(4) %4)
          to label %25 unwind label %21

25:                                               ; preds = %23, %20, %"_ZZ21uloc_toLanguageTag_77ENK3$_0clERN6icu_778ByteSinkER10UErrorCode.exit.i"
  %.1.i = phi i32 [ 0, %"_ZZ21uloc_toLanguageTag_77ENK3$_0clERN6icu_778ByteSinkER10UErrorCode.exit.i" ], [ %17, %20 ], [ %24, %23 ]
  call void @_ZN6icu_7720CheckedArrayByteSinkD1Ev(ptr noundef nonnull align 8 dereferenceable(29) %6) #17
  call void @llvm.lifetime.end.p0(i64 32, ptr nonnull %6) #17
  br label %"_ZN6icu_7712ByteSinkUtil28viaByteSinkToTerminatedCharsIZ21uloc_toLanguageTag_77E3$_0vEEiPciOT_R10UErrorCode.exit"

26:                                               ; preds = %21, %13
  %.pn.i = phi { ptr, i32 } [ %22, %21 ], [ %14, %13 ]
  call void @_ZN6icu_7720CheckedArrayByteSinkD1Ev(ptr noundef nonnull align 8 dereferenceable(29) %6) #17
  call void @llvm.lifetime.end.p0(i64 32, ptr nonnull %6) #17
  resume { ptr, i32 } %.pn.i

"_ZN6icu_7712ByteSinkUtil28viaByteSinkToTerminatedCharsIZ21uloc_toLanguageTag_77E3$_0vEEiPciOT_R10UErrorCode.exit": ; preds = %5, %25
  %.0.i = phi i32 [ %.1.i, %25 ], [ 0, %5 ]
  ret i32 %.0.i
}